; Function Attrs: mustprogress uwtable
define hidden void @_ZN6Assimp9BVHLoader13ReadStructureEP7aiScene(ptr noundef nonnull align 8 dereferenceable(177) %this, ptr nocapture noundef writeonly %pScene) local_unnamed_addr #3 align 2 personality ptr @__gxx_personality_v0 {
invoke.cont:
  %root.i = alloca %"class.std::__cxx11::basic_string", align 8
  %header = alloca %"class.std::__cxx11::basic_string", align 8
  %motion = alloca %"class.std::__cxx11::basic_string", align 8
  call void @_ZN6Assimp9BVHLoader12GetNextTokenB5cxx11Ev(ptr nonnull sret(%"class.std::__cxx11::basic_string") align 8 %header, ptr noundef nonnull align 8 dereferenceable(177) %this)
  %call.i.i = call noundef i32 @_ZNKSt7__cxx1112basic_stringIcSt11char_traitsIcESaIcEE7compareEPKc(ptr noundef nonnull align 8 dereferenceable(32) %header, ptr noundef nonnull @.str) #20
  %cmp.i.i.not = icmp eq i32 %call.i.i, 0
  br i1 %cmp.i.i.not, label %if.end, label %if.then

if.then:                                          ; preds = %invoke.cont
  invoke void @_ZN6Assimp9BVHLoader14ThrowExceptionIJRA36_KcEEEvDpOT_(ptr noundef nonnull align 8 dereferenceable(177) %this, ptr noundef nonnull align 1 dereferenceable(36) @.str.6) #22
          to label %invoke.cont2 unwind label %lpad

invoke.cont2:                                     ; preds = %if.then
  unreachable

lpad:                                             ; preds = %if.end, %invoke.cont3, %if.then
  %0 = landingpad { ptr, i32 }
          cleanup
  br label %ehcleanup

if.end:                                           ; preds = %invoke.cont
  call void @llvm.lifetime.start.p0(i64 32, ptr nonnull %root.i)
  invoke void @_ZN6Assimp9BVHLoader12GetNextTokenB5cxx11Ev(ptr nonnull sret(%"class.std::__cxx11::basic_string") align 8 %root.i, ptr noundef nonnull align 8 dereferenceable(177) %this)
          to label %.noexc unwind label %lpad

.noexc:                                           ; preds = %if.end
  %call.i.i.i = call noundef i32 @_ZNKSt7__cxx1112basic_stringIcSt11char_traitsIcESaIcEE7compareEPKc(ptr noundef nonnull align 8 dereferenceable(32) %root.i, ptr noundef nonnull @.str.9) #20
  %cmp.i.i.not.i = icmp eq i32 %call.i.i.i, 0
  br i1 %cmp.i.i.not.i, label %if.end.i, label %if.then.i

if.then.i:                                        ; preds = %.noexc
  invoke void @_ZN6Assimp9BVHLoader14ThrowExceptionIJRA27_KcEEEvDpOT_(ptr noundef nonnull align 8 dereferenceable(177) %this, ptr noundef nonnull align 1 dereferenceable(27) @.str.10) #22
          to label %invoke.cont2.i unwind label %lpad.i

invoke.cont2.i:                                   ; preds = %if.then.i
  unreachable

lpad.i:                                           ; preds = %if.end.i, %if.then.i
  %1 = landingpad { ptr, i32 }
          cleanup
  call void @_ZNSt7__cxx1112basic_stringIcSt11char_traitsIcESaIcEED1Ev(ptr noundef nonnull align 8 dereferenceable(32) %root.i) #20
  br label %ehcleanup

if.end.i:                                         ; preds = %.noexc
  %call4.i = invoke noundef ptr @_ZN6Assimp9BVHLoader8ReadNodeEv(ptr noundef nonnull align 8 dereferenceable(177) %this)
          to label %invoke.cont3 unwind label %lpad.i

invoke.cont3:                                     ; preds = %if.end.i
  %mRootNode.i = getelementptr inbounds i8, ptr %pScene, i64 8
  store ptr %call4.i, ptr %mRootNode.i, align 8
  call void @_ZNSt7__cxx1112basic_stringIcSt11char_traitsIcESaIcEED1Ev(ptr noundef nonnull align 8 dereferenceable(32) %root.i) #20
  call void @llvm.lifetime.end.p0(i64 32, ptr nonnull %root.i)
  invoke void @_ZN6Assimp9BVHLoader12GetNextTokenB5cxx11Ev(ptr nonnull sret(%"class.std::__cxx11::basic_string") align 8 %motion, ptr noundef nonnull align 8 dereferenceable(177) %this)
          to label %invoke.cont6 unwind label %lpad

invoke.cont6:                                     ; preds = %invoke.cont3
  %call.i.i3 = call noundef i32 @_ZNKSt7__cxx1112basic_stringIcSt11char_traitsIcESaIcEE7compareEPKc(ptr noundef nonnull align 8 dereferenceable(32) %motion, ptr noundef nonnull @.str.7) #20
  %cmp.i.i4.not = icmp eq i32 %call.i.i3, 0
  br i1 %cmp.i.i4.not, label %if.end10, label %if.then8

if.then8:                                         ; preds = %invoke.cont6
  invoke void @_ZN6Assimp9BVHLoader14ThrowExceptionIJRA44_KcEEEvDpOT_(ptr noundef nonnull align 8 dereferenceable(177) %this, ptr noundef nonnull align 1 dereferenceable(44) @.str.8) #22
          to label %invoke.cont9 unwind label %lpad5

invoke.cont9:                                     ; preds = %if.then8
  unreachable

lpad5:                                            ; preds = %if.end10, %if.then8
  %2 = landingpad { ptr, i32 }
          cleanup
  call void @_ZNSt7__cxx1112basic_stringIcSt11char_traitsIcESaIcEED1Ev(ptr noundef nonnull align 8 dereferenceable(32) %motion) #20
  br label %ehcleanup

if.end10:                                         ; preds = %invoke.cont6
  invoke void @_ZN6Assimp9BVHLoader10ReadMotionEP7aiScene(ptr noundef nonnull align 8 dereferenceable(177) %this, ptr nonnull poison)
          to label %invoke.cont11 unwind label %lpad5

invoke.cont11:                                    ; preds = %if.end10
  call void @_ZNSt7__cxx1112basic_stringIcSt11char_traitsIcESaIcEED1Ev(ptr noundef nonnull align 8 dereferenceable(32) %motion) #20
  call void @_ZNSt7__cxx1112basic_stringIcSt11char_traitsIcESaIcEED1Ev(ptr noundef nonnull align 8 dereferenceable(32) %header) #20
  ret void

ehcleanup:                                        ; preds = %lpad, %lpad.i, %lpad5
  %.pn = phi { ptr, i32 } [ %2, %lpad5 ], [ %0, %lpad ], [ %1, %lpad.i ]
  call void @_ZNSt7__cxx1112basic_stringIcSt11char_traitsIcESaIcEED1Ev(ptr noundef nonnull align 8 dereferenceable(32) %header) #20
  resume { ptr, i32 } %.pn
}